target datalayout = "e-m:e-p270:32:32-p271:32:32-p272:64:64-i64:64-i128:128-f80:128-n8:16:32:64-S128"
target triple = "x86_64-pc-linux-gnu"

%"class.std::__shared_count" = type { ptr }
%"struct.std::_Rb_tree_header" = type { %"struct.std::_Rb_tree_node_base", i64 }
%"struct.std::_Rb_tree_node_base" = type { i32, ptr, ptr, ptr }
%"class.gmxapi::SessionImpl" = type { %"class.std::map.10", %"class.std::shared_ptr.15", %"class.std::unique_ptr", %"class.gmx::SimulationContext", %"class.std::unique_ptr.28", %"class.std::unique_ptr.36", %"class.std::map.44" }
%"class.std::map.10" = type { %"class.std::_Rb_tree.11" }
%"class.std::_Rb_tree.11" = type { %"struct.std::_Rb_tree<std::__cxx11::basic_string<char>, std::pair<const std::__cxx11::basic_string<char>, std::unique_ptr<gmxapi::SessionResources>>, std::_Select1st<std::pair<const std::__cxx11::basic_string<char>, std::unique_ptr<gmxapi::SessionResources>>>, std::less<std::__cxx11::basic_string<char>>>::_Rb_tree_impl" }
%"struct.std::_Rb_tree<std::__cxx11::basic_string<char>, std::pair<const std::__cxx11::basic_string<char>, std::unique_ptr<gmxapi::SessionResources>>, std::_Select1st<std::pair<const std::__cxx11::basic_string<char>, std::unique_ptr<gmxapi::SessionResources>>>, std::less<std::__cxx11::basic_string<char>>>::_Rb_tree_impl" = type { [8 x i8], %"struct.std::_Rb_tree_header" }
%"class.std::shared_ptr.15" = type { %"class.std::__shared_ptr.16" }
%"class.std::__shared_ptr.16" = type { ptr, %"class.std::__shared_count" }
%"class.std::unique_ptr" = type { %"struct.std::__uniq_ptr_data" }
%"struct.std::__uniq_ptr_data" = type { %"class.std::__uniq_ptr_impl" }
%"class.std::__uniq_ptr_impl" = type { %"class.std::tuple" }
%"class.std::tuple" = type { %"struct.std::_Tuple_impl" }
%"struct.std::_Tuple_impl" = type { %"struct.std::_Head_base.19" }
%"struct.std::_Head_base.19" = type { ptr }
%"class.gmx::SimulationContext" = type { ptr, ptr, %"class.std::unique_ptr.20" }
%"class.std::unique_ptr.20" = type { %"struct.std::__uniq_ptr_data.21" }
%"struct.std::__uniq_ptr_data.21" = type { %"class.std::__uniq_ptr_impl.22" }
%"class.std::__uniq_ptr_impl.22" = type { %"class.std::tuple.23" }
%"class.std::tuple.23" = type { %"struct.std::_Tuple_impl.24" }
%"struct.std::_Tuple_impl.24" = type { %"struct.std::_Head_base.27" }
%"struct.std::_Head_base.27" = type { ptr }
%"class.std::unique_ptr.28" = type { %"struct.std::__uniq_ptr_data.29" }
%"struct.std::__uniq_ptr_data.29" = type { %"class.std::__uniq_ptr_impl.30" }
%"class.std::__uniq_ptr_impl.30" = type { %"class.std::tuple.31" }
%"class.std::tuple.31" = type { %"struct.std::_Tuple_impl.32" }
%"struct.std::_Tuple_impl.32" = type { %"struct.std::_Head_base.35" }
%"struct.std::_Head_base.35" = type { ptr }
%"class.std::unique_ptr.36" = type { %"struct.std::__uniq_ptr_data.37" }
%"struct.std::__uniq_ptr_data.37" = type { %"class.std::__uniq_ptr_impl.38" }
%"class.std::__uniq_ptr_impl.38" = type { %"class.std::tuple.39" }
%"class.std::tuple.39" = type { %"struct.std::_Tuple_impl.40" }
%"struct.std::_Tuple_impl.40" = type { %"struct.std::_Head_base.43" }
%"struct.std::_Head_base.43" = type { ptr }
%"class.std::map.44" = type { %"class.std::_Rb_tree.45" }
%"class.std::_Rb_tree.45" = type { %"struct.std::_Rb_tree<std::__cxx11::basic_string<char>, std::pair<const std::__cxx11::basic_string<char>, std::weak_ptr<gmx::IRestraintPotential>>, std::_Select1st<std::pair<const std::__cxx11::basic_string<char>, std::weak_ptr<gmx::IRestraintPotential>>>, std::less<std::__cxx11::basic_string<char>>>::_Rb_tree_impl" }
%"struct.std::_Rb_tree<std::__cxx11::basic_string<char>, std::pair<const std::__cxx11::basic_string<char>, std::weak_ptr<gmx::IRestraintPotential>>, std::_Select1st<std::pair<const std::__cxx11::basic_string<char>, std::weak_ptr<gmx::IRestraintPotential>>>, std::less<std::__cxx11::basic_string<char>>>::_Rb_tree_impl" = type { [8 x i8], %"struct.std::_Rb_tree_header" }
%"class.std::unique_ptr.121" = type { %"struct.std::__uniq_ptr_data.122" }
%"struct.std::__uniq_ptr_data.122" = type { %"class.std::__uniq_ptr_impl.123" }
%"class.std::__uniq_ptr_impl.123" = type { %"class.std::tuple.124" }
%"class.std::tuple.124" = type { %"struct.std::_Tuple_impl.125" }
%"struct.std::_Tuple_impl.125" = type { %"struct.std::_Head_base.128" }
%"struct.std::_Head_base.128" = type { ptr }

@_ZTISt12out_of_range = external constant ptr

; Function Attrs: mustprogress nounwind uwtable
define linkonce_odr noundef nonnull align 8 dereferenceable(8) ptr @_ZNSt10_Head_baseILm0EPN6gmxapi16SessionResourcesELb0EE7_M_headERKS3_(ptr noundef nonnull align 8 dereferenceable(8) %0) #3 comdat align 2 {
  %2 = alloca ptr, align 8
  store ptr %0, ptr %2, align 8, !tbaa !349
  %3 = load ptr, ptr %2, align 8, !tbaa !349
  %4 = getelementptr inbounds nuw %"struct.std::_Head_base.128", ptr %3, i32 0, i32 0
  ret ptr %4
}

; Function Attrs: mustprogress nounwind uwtable
define linkonce_odr noundef nonnull align 8 dereferenceable(8) ptr @_ZNSt11_Tuple_implILm0EJPN6gmxapi16SessionResourcesESt14default_deleteIS1_EEE7_M_headERKS5_(ptr noundef nonnull align 8 dereferenceable(8) %0) #3 comdat align 2 {
  %2 = alloca ptr, align 8
  store ptr %0, ptr %2, align 8, !tbaa !347
  %3 = load ptr, ptr %2, align 8, !tbaa !347
  %4 = call noundef nonnull align 8 dereferenceable(8) ptr @_ZNSt10_Head_baseILm0EPN6gmxapi16SessionResourcesELb0EE7_M_headERKS3_(ptr noundef nonnull align 8 dereferenceable(8) %3) #20
  ret ptr %4
}

; Function Attrs: mustprogress nounwind uwtable
define linkonce_odr noundef nonnull align 8 dereferenceable(8) ptr @_ZSt12__get_helperILm0EPN6gmxapi16SessionResourcesEJSt14default_deleteIS1_EEERKT0_RKSt11_Tuple_implIXT_EJS5_DpT1_EE(ptr noundef nonnull align 8 dereferenceable(8) %0) #3 comdat {
  %2 = alloca ptr, align 8
  store ptr %0, ptr %2, align 8, !tbaa !347
  %3 = load ptr, ptr %2, align 8, !tbaa !347
  %4 = call noundef nonnull align 8 dereferenceable(8) ptr @_ZNSt11_Tuple_implILm0EJPN6gmxapi16SessionResourcesESt14default_deleteIS1_EEE7_M_headERKS5_(ptr noundef nonnull align 8 dereferenceable(8) %3) #20
  ret ptr %4
}

; Function Attrs: mustprogress nounwind uwtable
define linkonce_odr noundef nonnull align 8 dereferenceable(8) ptr @_ZSt3getILm0EJPN6gmxapi16SessionResourcesESt14default_deleteIS1_EEERKNSt13tuple_elementIXT_ESt5tupleIJDpT0_EEE4typeERKS9_(ptr noundef nonnull align 8 dereferenceable(8) %0) #3 comdat {
  %2 = alloca ptr, align 8
  store ptr %0, ptr %2, align 8, !tbaa !345
  %3 = load ptr, ptr %2, align 8, !tbaa !345
  %4 = call noundef nonnull align 8 dereferenceable(8) ptr @_ZSt12__get_helperILm0EPN6gmxapi16SessionResourcesEJSt14default_deleteIS1_EEERKT0_RKSt11_Tuple_implIXT_EJS5_DpT1_EE(ptr noundef nonnull align 8 dereferenceable(8) %3) #20
  ret ptr %4
}

; Function Attrs: mustprogress nounwind uwtable
define linkonce_odr noundef ptr @_ZNKSt15__uniq_ptr_implIN6gmxapi16SessionResourcesESt14default_deleteIS1_EE6_M_ptrEv(ptr noundef nonnull align 8 dereferenceable(8) %0) #3 comdat align 2 {
  %2 = alloca ptr, align 8
  store ptr %0, ptr %2, align 8, !tbaa !341
  %3 = load ptr, ptr %2, align 8
  %4 = getelementptr inbounds nuw %"class.std::__uniq_ptr_impl.123", ptr %3, i32 0, i32 0
  %5 = call noundef nonnull align 8 dereferenceable(8) ptr @_ZSt3getILm0EJPN6gmxapi16SessionResourcesESt14default_deleteIS1_EEERKNSt13tuple_elementIXT_ESt5tupleIJDpT0_EEE4typeERKS9_(ptr noundef nonnull align 8 dereferenceable(8) %4) #20
  %6 = load ptr, ptr %5, align 8, !tbaa !339
  ret ptr %6
}

; Function Attrs: mustprogress nounwind uwtable
define linkonce_odr noundef ptr @_ZNKSt10unique_ptrIN6gmxapi16SessionResourcesESt14default_deleteIS1_EE3getEv(ptr noundef nonnull align 8 dereferenceable(8) %0) #3 comdat align 2 {
  %2 = alloca ptr, align 8
  store ptr %0, ptr %2, align 8, !tbaa !335
  %3 = load ptr, ptr %2, align 8
  %4 = getelementptr inbounds nuw %"class.std::unique_ptr.121", ptr %3, i32 0, i32 0
  %5 = call noundef ptr @_ZNKSt15__uniq_ptr_implIN6gmxapi16SessionResourcesESt14default_deleteIS1_EE6_M_ptrEv(ptr noundef nonnull align 8 dereferenceable(8) %4) #20
  ret ptr %5
}

; Function Attrs: mustprogress nounwind uwtable
define noundef ptr @_ZNK6gmxapi11SessionImpl12getResourcesERKNSt7__cxx1112basic_stringIcSt11char_traitsIcESaIcEEE(ptr noundef nonnull align 8 dereferenceable(160) %0, ptr noundef nonnull align 8 dereferenceable(32) %1) #3 align 2 personality ptr @__gxx_personality_v0 {
  %3 = alloca ptr, align 8
  %4 = alloca ptr, align 8
  %5 = alloca ptr, align 8
  %6 = alloca ptr, align 8
  %7 = alloca i32, align 4
  %8 = alloca ptr, align 8
  store ptr %0, ptr %3, align 8, !tbaa !134
  store ptr %1, ptr %4, align 8, !tbaa !121
  %9 = load ptr, ptr %3, align 8
  call void @llvm.lifetime.start.p0(i64 8, ptr %5) #20
  store ptr null, ptr %5, align 8, !tbaa !339
  %10 = getelementptr inbounds nuw %"class.gmxapi::SessionImpl", ptr %9, i32 0, i32 0
  %11 = load ptr, ptr %4, align 8, !tbaa !121
  %12 = invoke noundef nonnull align 8 dereferenceable(8) ptr @_ZNKSt3mapINSt7__cxx1112basic_stringIcSt11char_traitsIcESaIcEEESt10unique_ptrIN6gmxapi16SessionResourcesESt14default_deleteIS8_EESt4lessIS5_ESaISt4pairIKS5_SB_EEE2atERSF_(ptr noundef nonnull align 8 dereferenceable(48) %10, ptr noundef nonnull align 8 dereferenceable(32) %11)
          to label %13 unwind label %15

13:                                               ; preds = %2
  %14 = call noundef ptr @_ZNKSt10unique_ptrIN6gmxapi16SessionResourcesESt14default_deleteIS1_EE3getEv(ptr noundef nonnull align 8 dereferenceable(8) %12) #20
  store ptr %14, ptr %5, align 8, !tbaa !339
  br label %27

15:                                               ; preds = %2
  %16 = landingpad { ptr, i32 }
          catch ptr @_ZTISt12out_of_range
          catch ptr null
  %17 = extractvalue { ptr, i32 } %16, 0
  store ptr %17, ptr %6, align 8
  %18 = extractvalue { ptr, i32 } %16, 1
  store i32 %18, ptr %7, align 4
  br label %19

19:                                               ; preds = %15
  %20 = load i32, ptr %7, align 4
  %21 = call i32 @llvm.eh.typeid.for.p0(ptr @_ZTISt12out_of_range) #20
  %22 = icmp eq i32 %20, %21
  br i1 %22, label %23, label %32

23:                                               ; preds = %19
  call void @llvm.lifetime.start.p0(i64 8, ptr %8) #20
  %24 = load ptr, ptr %6, align 8
  %25 = call ptr @__cxa_begin_catch(ptr %24) #20
  store ptr %25, ptr %8, align 8
  invoke void @__cxa_end_catch()
          to label %26 unwind label %29

26:                                               ; preds = %23
  call void @llvm.lifetime.end.p0(i64 8, ptr %8) #20
  br label %27

27:                                               ; preds = %26, %13
  %28 = load ptr, ptr %5, align 8, !tbaa !339
  call void @llvm.lifetime.end.p0(i64 8, ptr %5) #20
  ret ptr %28

29:                                               ; preds = %23
  %30 = landingpad { ptr, i32 }
          catch ptr null
  %31 = extractvalue { ptr, i32 } %30, 0
  call void @__clang_call_terminate(ptr %31) #21
  unreachable

32:                                               ; preds = %19
  %33 = load ptr, ptr %6, align 8
  call void @__clang_call_terminate(ptr %33) #21
  unreachable
}