; Function Attrs: mustprogress nounwind uwtable
define noundef ptr @_ZNK6gmxapi11SessionImpl12getResourcesERKNSt7__cxx1112basic_stringIcSt11char_traitsIcESaIcEEE(ptr noundef nonnull align 8 dereferenceable(160) %0, ptr noundef nonnull align 8 dereferenceable(32) %1) local_unnamed_addr #4 align 2 personality ptr @__gxx_personality_v0 {
  %3 = invoke noundef nonnull align 8 dereferenceable(8) ptr @_ZNKSt3mapINSt7__cxx1112basic_stringIcSt11char_traitsIcESaIcEEESt10unique_ptrIN6gmxapi16SessionResourcesESt14default_deleteIS8_EESt4lessIS5_ESaISt4pairIKS5_SB_EEE2atERSF_(ptr noundef nonnull align 8 dereferenceable(48) %0, ptr noundef nonnull align 8 dereferenceable(32) %1)
          to label %4 unwind label %6

4:                                                ; preds = %2
  %5 = load ptr, ptr %3, align 8, !tbaa !91
  br label %14

6:                                                ; preds = %2
  %7 = landingpad { ptr, i32 }
          catch ptr @_ZTISt12out_of_range
          catch ptr null
  %8 = extractvalue { ptr, i32 } %7, 0
  %9 = extractvalue { ptr, i32 } %7, 1
  %10 = tail call i32 @llvm.eh.typeid.for.p0(ptr nonnull @_ZTISt12out_of_range) #26
  %11 = icmp eq i32 %9, %10
  br i1 %11, label %12, label %18

12:                                               ; preds = %6
  %13 = tail call ptr @__cxa_begin_catch(ptr %8) #26
  invoke void @__cxa_end_catch()
          to label %14 unwind label %15

14:                                               ; preds = %12, %4
  %.0 = phi ptr [ %5, %4 ], [ null, %12 ]
  ret ptr %.0

15:                                               ; preds = %12
  %16 = landingpad { ptr, i32 }
          catch ptr null
  %17 = extractvalue { ptr, i32 } %16, 0
  tail call void @__clang_call_terminate(ptr %17) #27
  unreachable

18:                                               ; preds = %6
  tail call void @__clang_call_terminate(ptr %8) #27
  unreachable
}